target datalayout = "e-m:e-p270:32:32-p271:32:32-p272:64:64-i64:64-i128:128-f80:128-n8:16:32:64-S128"
target triple = "x86_64-pc-linux-gnu"

%class.Type = type <{ ptr, ptr, i32, [4 x i8] }>
%class.Type.base = type <{ ptr, ptr, i32 }>
%class.TypeInteger.base = type { %class.Type.base, i16 }
%class.TypeLong = type { %class.TypeInteger.base, i64, i64 }
%class.TypeInteger = type { %class.Type.base, i16, [2 x i8] }

@_ZN8TypeLong4LONGE = hidden global ptr null, align 8

; Function Attrs: mustprogress nounwind uwtable
define linkonce_odr hidden noundef ptr @_ZNK4Type8isa_longEv(ptr noundef nonnull align 8 dereferenceable(20) %0) #1 comdat align 2 {
  %2 = alloca ptr, align 8
  store ptr %0, ptr %2, align 8
  %3 = load ptr, ptr %2, align 8
  %4 = getelementptr inbounds %class.Type, ptr %3, i32 0, i32 2
  %5 = load i32, ptr %4, align 8
  %6 = icmp eq i32 %5, 4
  br i1 %6, label %7, label %8

7:                                                ; preds = %1
  br label %9

8:                                                ; preds = %1
  br label %9

9:                                                ; preds = %8, %7
  %10 = phi ptr [ %3, %7 ], [ null, %8 ]
  ret ptr %10
}

; Function Attrs: mustprogress nounwind uwtable
define linkonce_odr hidden noundef ptr @_ZNK4Type7is_longEv(ptr noundef nonnull align 8 dereferenceable(20) %0) #1 comdat align 2 {
  %2 = alloca ptr, align 8
  store ptr %0, ptr %2, align 8
  %3 = load ptr, ptr %2, align 8
  ret ptr %3
}

; Function Attrs: mustprogress nounwind uwtable
define linkonce_odr hidden noundef i32 @_ZNK4Type4baseEv(ptr noundef nonnull align 8 dereferenceable(20) %0) #1 comdat align 2 {
  %2 = alloca ptr, align 8
  store ptr %0, ptr %2, align 8
  %3 = load ptr, ptr %2, align 8
  %4 = getelementptr inbounds %class.Type, ptr %3, i32 0, i32 2
  %5 = load i32, ptr %4, align 8
  ret i32 %5
}

; Function Attrs: mustprogress nounwind uwtable
define hidden noundef ptr @_ZNK8TypeLong5widenEPK4TypeS2_(ptr noundef nonnull align 8 dereferenceable(40) %0, ptr noundef %1, ptr noundef %2) unnamed_addr #1 align 2 {
  %4 = alloca ptr, align 8
  %5 = alloca ptr, align 8
  %6 = alloca ptr, align 8
  %7 = alloca ptr, align 8
  %8 = alloca ptr, align 8
  %9 = alloca i64, align 8
  %10 = alloca i64, align 8
  store ptr %0, ptr %5, align 8
  store ptr %1, ptr %6, align 8
  store ptr %2, ptr %7, align 8
  %11 = load ptr, ptr %5, align 8
  %12 = load ptr, ptr %6, align 8
  %13 = call noundef i32 @_ZNK4Type4baseEv(ptr noundef nonnull align 8 dereferenceable(20) %12)
  %14 = icmp ne i32 %13, 4
  br i1 %14, label %15, label %16

15:                                               ; preds = %3
  store ptr %11, ptr %4, align 8
  br label %160

16:                                               ; preds = %3
  %17 = load ptr, ptr %6, align 8
  %18 = call noundef ptr @_ZNK4Type7is_longEv(ptr noundef nonnull align 8 dereferenceable(20) %17)
  store ptr %18, ptr %8, align 8
  %19 = getelementptr inbounds %class.TypeLong, ptr %11, i32 0, i32 1
  %20 = load i64, ptr %19, align 8
  %21 = load ptr, ptr %8, align 8
  %22 = getelementptr inbounds %class.TypeLong, ptr %21, i32 0, i32 1
  %23 = load i64, ptr %22, align 8
  %24 = icmp eq i64 %20, %23
  br i1 %24, label %25, label %34

25:                                               ; preds = %16
  %26 = getelementptr inbounds %class.TypeLong, ptr %11, i32 0, i32 2
  %27 = load i64, ptr %26, align 8
  %28 = load ptr, ptr %8, align 8
  %29 = getelementptr inbounds %class.TypeLong, ptr %28, i32 0, i32 2
  %30 = load i64, ptr %29, align 8
  %31 = icmp eq i64 %27, %30
  br i1 %31, label %32, label %34

32:                                               ; preds = %25
  %33 = load ptr, ptr %6, align 8
  store ptr %33, ptr %4, align 8
  br label %160

34:                                               ; preds = %25, %16
  %35 = getelementptr inbounds %class.TypeLong, ptr %11, i32 0, i32 1
  %36 = load i64, ptr %35, align 8
  %37 = load ptr, ptr %8, align 8
  %38 = getelementptr inbounds %class.TypeLong, ptr %37, i32 0, i32 1
  %39 = load i64, ptr %38, align 8
  %40 = icmp sle i64 %36, %39
  br i1 %40, label %41, label %142

41:                                               ; preds = %34
  %42 = getelementptr inbounds %class.TypeLong, ptr %11, i32 0, i32 2
  %43 = load i64, ptr %42, align 8
  %44 = load ptr, ptr %8, align 8
  %45 = getelementptr inbounds %class.TypeLong, ptr %44, i32 0, i32 2
  %46 = load i64, ptr %45, align 8
  %47 = icmp sge i64 %43, %46
  br i1 %47, label %48, label %142

48:                                               ; preds = %41
  %49 = getelementptr inbounds %class.TypeInteger, ptr %11, i32 0, i32 1
  %50 = load i16, ptr %49, align 4
  %51 = sext i16 %50 to i32
  %52 = load ptr, ptr %8, align 8
  %53 = getelementptr inbounds %class.TypeInteger, ptr %52, i32 0, i32 1
  %54 = load i16, ptr %53, align 4
  %55 = sext i16 %54 to i32
  %56 = icmp sgt i32 %51, %55
  br i1 %56, label %57, label %58

57:                                               ; preds = %48
  store ptr %11, ptr %4, align 8
  br label %160

58:                                               ; preds = %48
  %59 = load ptr, ptr %8, align 8
  %60 = getelementptr inbounds %class.TypeLong, ptr %59, i32 0, i32 1
  %61 = load i64, ptr %60, align 8
  %62 = load ptr, ptr %8, align 8
  %63 = getelementptr inbounds %class.TypeLong, ptr %62, i32 0, i32 2
  %64 = load i64, ptr %63, align 8
  %65 = icmp eq i64 %61, %64
  br i1 %65, label %66, label %67

66:                                               ; preds = %58
  store ptr %11, ptr %4, align 8
  br label %160

67:                                               ; preds = %58
  %68 = getelementptr inbounds %class.TypeInteger, ptr %11, i32 0, i32 1
  %69 = load i16, ptr %68, align 4
  %70 = sext i16 %69 to i32
  %71 = icmp eq i32 %70, 3
  br i1 %71, label %72, label %132

72:                                               ; preds = %67
  store i64 9223372036854775807, ptr %9, align 8
  store i64 -9223372036854775808, ptr %10, align 8
  %73 = load ptr, ptr %7, align 8
  %74 = call noundef ptr @_ZNK4Type8isa_longEv(ptr noundef nonnull align 8 dereferenceable(20) %73)
  %75 = icmp ne ptr %74, null
  br i1 %75, label %76, label %85

76:                                               ; preds = %72
  %77 = load ptr, ptr %7, align 8
  %78 = call noundef ptr @_ZNK4Type7is_longEv(ptr noundef nonnull align 8 dereferenceable(20) %77)
  %79 = getelementptr inbounds %class.TypeLong, ptr %78, i32 0, i32 2
  %80 = load i64, ptr %79, align 8
  store i64 %80, ptr %9, align 8
  %81 = load ptr, ptr %7, align 8
  %82 = call noundef ptr @_ZNK4Type7is_longEv(ptr noundef nonnull align 8 dereferenceable(20) %81)
  %83 = getelementptr inbounds %class.TypeLong, ptr %82, i32 0, i32 1
  %84 = load i64, ptr %83, align 8
  store i64 %84, ptr %10, align 8
  br label %85

85:                                               ; preds = %76, %72
  %86 = load i64, ptr %10, align 8
  %87 = getelementptr inbounds %class.TypeLong, ptr %11, i32 0, i32 1
  %88 = load i64, ptr %87, align 8
  %89 = icmp slt i64 %86, %88
  br i1 %89, label %90, label %130

90:                                               ; preds = %85
  %91 = getelementptr inbounds %class.TypeLong, ptr %11, i32 0, i32 2
  %92 = load i64, ptr %91, align 8
  %93 = load i64, ptr %9, align 8
  %94 = icmp slt i64 %92, %93
  br i1 %94, label %95, label %130

95:                                               ; preds = %90
  %96 = getelementptr inbounds %class.TypeLong, ptr %11, i32 0, i32 1
  %97 = load i64, ptr %96, align 8
  %98 = icmp sge i64 %97, 0
  br i1 %98, label %109, label %99

99:                                               ; preds = %95
  %100 = getelementptr inbounds %class.TypeLong, ptr %11, i32 0, i32 1
  %101 = load i64, ptr %100, align 8
  %102 = load i64, ptr %10, align 8
  %103 = sub i64 %101, %102
  %104 = load i64, ptr %9, align 8
  %105 = getelementptr inbounds %class.TypeLong, ptr %11, i32 0, i32 2
  %106 = load i64, ptr %105, align 8
  %107 = sub i64 %104, %106
  %108 = icmp uge i64 %103, %107
  br i1 %108, label %109, label %125

109:                                              ; preds = %99, %95
  %110 = load i64, ptr %9, align 8
  %111 = icmp sge i64 %110, 4294967295
  br i1 %111, label %112, label %120

112:                                              ; preds = %109
  %113 = getelementptr inbounds %class.TypeLong, ptr %11, i32 0, i32 2
  %114 = load i64, ptr %113, align 8
  %115 = icmp slt i64 %114, 4294967295
  br i1 %115, label %116, label %120

116:                                              ; preds = %112
  %117 = getelementptr inbounds %class.TypeLong, ptr %11, i32 0, i32 1
  %118 = load i64, ptr %117, align 8
  %119 = call noundef ptr @_ZN8TypeLong4makeElli(i64 noundef %118, i64 noundef 4294967295, i32 noundef 3)
  store ptr %119, ptr %4, align 8
  br label %160

120:                                              ; preds = %112, %109
  %121 = getelementptr inbounds %class.TypeLong, ptr %11, i32 0, i32 1
  %122 = load i64, ptr %121, align 8
  %123 = load i64, ptr %9, align 8
  %124 = call noundef ptr @_ZN8TypeLong4makeElli(i64 noundef %122, i64 noundef %123, i32 noundef 3)
  store ptr %124, ptr %4, align 8
  br label %160

125:                                              ; preds = %99
  %126 = load i64, ptr %10, align 8
  %127 = getelementptr inbounds %class.TypeLong, ptr %11, i32 0, i32 2
  %128 = load i64, ptr %127, align 8
  %129 = call noundef ptr @_ZN8TypeLong4makeElli(i64 noundef %126, i64 noundef %128, i32 noundef 3)
  store ptr %129, ptr %4, align 8
  br label %160

130:                                              ; preds = %90, %85
  %131 = load ptr, ptr @_ZN8TypeLong4LONGE, align 8
  store ptr %131, ptr %4, align 8
  br label %160

132:                                              ; preds = %67
  %133 = getelementptr inbounds %class.TypeLong, ptr %11, i32 0, i32 1
  %134 = load i64, ptr %133, align 8
  %135 = getelementptr inbounds %class.TypeLong, ptr %11, i32 0, i32 2
  %136 = load i64, ptr %135, align 8
  %137 = getelementptr inbounds %class.TypeInteger, ptr %11, i32 0, i32 1
  %138 = load i16, ptr %137, align 4
  %139 = sext i16 %138 to i32
  %140 = add nsw i32 %139, 1
  %141 = call noundef ptr @_ZN8TypeLong4makeElli(i64 noundef %134, i64 noundef %136, i32 noundef %140)
  store ptr %141, ptr %4, align 8
  br label %160

142:                                              ; preds = %41, %34
  %143 = load ptr, ptr %8, align 8
  %144 = getelementptr inbounds %class.TypeLong, ptr %143, i32 0, i32 1
  %145 = load i64, ptr %144, align 8
  %146 = getelementptr inbounds %class.TypeLong, ptr %11, i32 0, i32 1
  %147 = load i64, ptr %146, align 8
  %148 = icmp sle i64 %145, %147
  br i1 %148, label %149, label %158

149:                                              ; preds = %142
  %150 = load ptr, ptr %8, align 8
  %151 = getelementptr inbounds %class.TypeLong, ptr %150, i32 0, i32 2
  %152 = load i64, ptr %151, align 8
  %153 = getelementptr inbounds %class.TypeLong, ptr %11, i32 0, i32 2
  %154 = load i64, ptr %153, align 8
  %155 = icmp sge i64 %152, %154
  br i1 %155, label %156, label %158

156:                                              ; preds = %149
  %157 = load ptr, ptr %6, align 8
  store ptr %157, ptr %4, align 8
  br label %160

158:                                              ; preds = %149, %142
  %159 = load ptr, ptr @_ZN8TypeLong4LONGE, align 8
  store ptr %159, ptr %4, align 8
  br label %160

160:                                              ; preds = %158, %156, %132, %130, %125, %120, %116, %66, %57, %32, %15
  %161 = load ptr, ptr %4, align 8
  ret ptr %161
}