; Function Attrs: mustprogress nounwind uwtable
define hidden noundef ptr @_ZNK8TypeLong5widenEPK4TypeS2_(ptr noundef nonnull readonly align 8 dereferenceable(40) %0, ptr noundef readonly %1, ptr noundef readonly %2) unnamed_addr #0 align 2 {
  %4 = getelementptr inbounds i8, ptr %1, i64 16
  %5 = load i32, ptr %4, align 8
  %.not = icmp eq i32 %5, 4
  br i1 %.not, label %6, label %106

6:                                                ; preds = %3
  %7 = getelementptr inbounds i8, ptr %0, i64 24
  %8 = load i64, ptr %7, align 8
  %9 = getelementptr inbounds i8, ptr %1, i64 24
  %10 = load i64, ptr %9, align 8
  %11 = icmp eq i64 %8, %10
  br i1 %11, label %12, label %18

12:                                               ; preds = %6
  %13 = getelementptr inbounds i8, ptr %0, i64 32
  %14 = load i64, ptr %13, align 8
  %15 = getelementptr inbounds i8, ptr %1, i64 32
  %16 = load i64, ptr %15, align 8
  %17 = icmp eq i64 %14, %16
  br i1 %17, label %106, label %18

18:                                               ; preds = %12, %6
  %.not33 = icmp sgt i64 %8, %10
  br i1 %.not33, label %98, label %19

19:                                               ; preds = %18
  %20 = getelementptr inbounds i8, ptr %0, i64 32
  %21 = load i64, ptr %20, align 8
  %22 = getelementptr inbounds i8, ptr %1, i64 32
  %23 = load i64, ptr %22, align 8
  %.not34 = icmp slt i64 %21, %23
  br i1 %.not34, label %98, label %24

24:                                               ; preds = %19
  %25 = getelementptr inbounds i8, ptr %0, i64 20
  %26 = load i16, ptr %25, align 4
  %27 = getelementptr inbounds i8, ptr %1, i64 20
  %28 = load i16, ptr %27, align 4
  %29 = icmp sgt i16 %26, %28
  %30 = icmp eq i64 %10, %23
  %or.cond40 = or i1 %30, %29
  br i1 %or.cond40, label %106, label %31

31:                                               ; preds = %24
  %32 = icmp eq i16 %26, 3
  br i1 %32, label %33, label %61

33:                                               ; preds = %31
  %34 = getelementptr inbounds i8, ptr %2, i64 16
  %35 = load i32, ptr %34, align 8
  %36 = icmp ne i32 %35, 4
  %.not3742 = icmp eq ptr %2, null
  %.not37 = or i1 %.not3742, %36
  br i1 %.not37, label %42, label %37

37:                                               ; preds = %33
  %38 = getelementptr inbounds i8, ptr %2, i64 32
  %39 = load i64, ptr %38, align 8
  %40 = getelementptr inbounds i8, ptr %2, i64 24
  %41 = load i64, ptr %40, align 8
  br label %42

42:                                               ; preds = %37, %33
  %.024 = phi i64 [ %39, %37 ], [ 9223372036854775807, %33 ]
  %.0 = phi i64 [ %41, %37 ], [ -9223372036854775808, %33 ]
  %43 = icmp slt i64 %.0, %8
  %44 = icmp slt i64 %21, %.024
  %or.cond41 = select i1 %43, i1 %44, i1 false
  br i1 %or.cond41, label %45, label %59

45:                                               ; preds = %42
  %46 = icmp sgt i64 %8, -1
  br i1 %46, label %50, label %47

47:                                               ; preds = %45
  %48 = sub i64 %8, %.0
  %49 = sub i64 %.024, %21
  %.not38 = icmp ult i64 %48, %49
  br i1 %.not38, label %57, label %50

50:                                               ; preds = %47, %45
  %51 = icmp sgt i64 %.024, 4294967294
  %52 = icmp slt i64 %21, 4294967295
  %or.cond = and i1 %52, %51
  br i1 %or.cond, label %53, label %55

53:                                               ; preds = %50
  %54 = tail call noundef ptr @_ZN8TypeLong4makeElli(i64 noundef %8, i64 noundef 4294967295, i32 noundef 3)
  br label %106

55:                                               ; preds = %50
  %56 = tail call noundef ptr @_ZN8TypeLong4makeElli(i64 noundef %8, i64 noundef %.024, i32 noundef 3)
  br label %106

57:                                               ; preds = %47
  %58 = tail call noundef ptr @_ZN8TypeLong4makeElli(i64 noundef %.0, i64 noundef %21, i32 noundef 3)
  br label %106

59:                                               ; preds = %42
  %60 = load ptr, ptr @_ZN8TypeLong4LONGE, align 8
  br label %106

61:                                               ; preds = %31
  %62 = add i16 %26, 1
  %.not.i.i = icmp sgt i64 %8, %21
  br i1 %.not.i.i, label %67, label %63

63:                                               ; preds = %61
  %64 = sub i64 %21, %8
  %65 = icmp ult i64 %64, 4
  %spec.select.i.i = select i1 %65, i16 0, i16 %62
  %66 = icmp eq i64 %64, -1
  %spec.select16.i.i = select i1 %66, i16 3, i16 %spec.select.i.i
  br label %_ZL20normalize_long_widenlli.exit.i

67:                                               ; preds = %61
  %68 = add i64 %8, 1
  %69 = sub i64 %68, %21
  %70 = icmp ult i64 %69, 5
  %spec.select17.i.i = select i1 %70, i16 0, i16 %62
  br label %_ZL20normalize_long_widenlli.exit.i

_ZL20normalize_long_widenlli.exit.i:              ; preds = %67, %63
  %.2.i.i = phi i16 [ %spec.select16.i.i, %63 ], [ %spec.select17.i.i, %67 ]
  %71 = tail call align 8 ptr @llvm.threadlocal.address.p0(ptr align 8 @_ZN6Thread12_thr_currentE)
  %72 = load ptr, ptr %71, align 8
  %73 = getelementptr inbounds i8, ptr %72, i64 1808
  %74 = load ptr, ptr %73, align 8
  %75 = getelementptr inbounds i8, ptr %74, i64 128
  %76 = load ptr, ptr %75, align 8
  %77 = getelementptr inbounds i8, ptr %76, i64 888
  store i64 40, ptr %77, align 8
  %78 = getelementptr inbounds i8, ptr %76, i64 848
  %79 = load ptr, ptr %78, align 8
  %80 = getelementptr inbounds i8, ptr %79, i64 40
  %81 = load ptr, ptr %80, align 8
  %82 = getelementptr inbounds i8, ptr %79, i64 32
  %83 = load ptr, ptr %82, align 8
  %84 = ptrtoint ptr %81 to i64
  %85 = ptrtoint ptr %83 to i64
  %86 = sub i64 %84, %85
  %.not.i.i.i.i = icmp ult i64 %86, 40
  br i1 %.not.i.i.i.i, label %89, label %87

87:                                               ; preds = %_ZL20normalize_long_widenlli.exit.i
  %88 = getelementptr inbounds i8, ptr %83, i64 40
  store ptr %88, ptr %82, align 8
  br label %_ZN8TypeLong4makeElli.exit

89:                                               ; preds = %_ZL20normalize_long_widenlli.exit.i
  %90 = tail call noundef ptr @_ZN5Arena4growEmN17AllocFailStrategy13AllocFailEnumE(ptr noundef nonnull align 8 dereferenceable(48) %79, i64 noundef 40, i32 noundef 0) #17
  br label %_ZN8TypeLong4makeElli.exit

_ZN8TypeLong4makeElli.exit:                       ; preds = %87, %89
  %.0.i.i.i.i = phi ptr [ %83, %87 ], [ %90, %89 ]
  %91 = icmp ne ptr %.0.i.i.i.i, null
  tail call void @llvm.assume(i1 %91)
  %92 = getelementptr inbounds i8, ptr %.0.i.i.i.i, i64 8
  store ptr null, ptr %92, align 8
  %93 = getelementptr inbounds i8, ptr %.0.i.i.i.i, i64 16
  store i32 4, ptr %93, align 8
  %94 = getelementptr inbounds i8, ptr %.0.i.i.i.i, i64 20
  store i16 %.2.i.i, ptr %94, align 4
  store ptr getelementptr inbounds inrange(-16, 200) (i8, ptr @_ZTV8TypeLong, i64 16), ptr %.0.i.i.i.i, align 8
  %95 = getelementptr inbounds i8, ptr %.0.i.i.i.i, i64 24
  store i64 %8, ptr %95, align 8
  %96 = getelementptr inbounds i8, ptr %.0.i.i.i.i, i64 32
  store i64 %21, ptr %96, align 8
  %97 = tail call noundef ptr @_ZN4Type8hashconsEv(ptr noundef nonnull align 8 dereferenceable(20) %.0.i.i.i.i)
  br label %106

98:                                               ; preds = %19, %18
  %.not35 = icmp sgt i64 %10, %8
  br i1 %.not35, label %104, label %99

99:                                               ; preds = %98
  %100 = getelementptr inbounds i8, ptr %1, i64 32
  %101 = load i64, ptr %100, align 8
  %102 = getelementptr inbounds i8, ptr %0, i64 32
  %103 = load i64, ptr %102, align 8
  %.not36 = icmp slt i64 %101, %103
  br i1 %.not36, label %104, label %106

104:                                              ; preds = %99, %98
  %105 = load ptr, ptr @_ZN8TypeLong4LONGE, align 8
  br label %106

106:                                              ; preds = %99, %24, %12, %3, %104, %_ZN8TypeLong4makeElli.exit, %59, %57, %55, %53
  %.025 = phi ptr [ %54, %53 ], [ %56, %55 ], [ %58, %57 ], [ %60, %59 ], [ %97, %_ZN8TypeLong4makeElli.exit ], [ %105, %104 ], [ %0, %3 ], [ %1, %12 ], [ %0, %24 ], [ %1, %99 ]
  ret ptr %.025
}